; Function Attrs: nounwind uwtable
define internal void @update_streams_uni(ptr noundef %0, ptr noundef %1) #0 {
  %3 = getelementptr i8, ptr %0, i64 256
  %.val = load i64, ptr %3, align 8
  %4 = and i64 %.val, 2
  %.not = icmp eq i64 %4, 0
  br i1 %.not, label %7, label %5

5:                                                ; preds = %2
  %6 = getelementptr inbounds nuw i8, ptr %1, i64 848
  tail call void @ossl_quic_stream_map_update_state(ptr noundef nonnull %6, ptr noundef nonnull %0) #3
  br label %7

7:                                                ; preds = %2, %5
  ret void
}